target datalayout = "e-m:e-p270:32:32-p271:32:32-p272:64:64-i64:64-i128:128-f80:128-n8:16:32:64-S128"
target triple = "x86_64-unknown-linux-gnu"

%struct.OptsVisitor = type { %struct.Visitor, ptr, i32, ptr, i32, ptr, %union.anon, %union.anon, ptr }
%struct.Visitor = type { ptr, ptr, ptr, ptr, ptr, ptr, ptr, ptr, ptr, ptr, ptr, ptr, ptr, ptr, ptr, ptr, ptr, ptr, ptr, ptr, i32, %struct.CompatPolicy, ptr, ptr }
%struct.CompatPolicy = type { i8, i32, i8, i32, i8, i32, i8, i32 }
%union.anon = type { i64 }

@.str.1 = private unnamed_addr constant [28 x i8] c"../qemu/qapi/opts-visitor.c\00", align 1
@__func__.lookup_distinct = private unnamed_addr constant [16 x i8] c"lookup_distinct\00", align 1
@.str.7 = private unnamed_addr constant [26 x i8] c"Parameter '%s' is missing\00", align 1
@__func__.lookup_scalar = private unnamed_addr constant [14 x i8] c"lookup_scalar\00", align 1
@.str.14 = private unnamed_addr constant [34 x i8] c"Fewer list elements than expected\00", align 1
@.str.15 = private unnamed_addr constant [32 x i8] c"ov->list_mode == LM_IN_PROGRESS\00", align 1
@__PRETTY_FUNCTION__.lookup_scalar = private unnamed_addr constant [74 x i8] c"const QemuOpt *lookup_scalar(const OptsVisitor *, const char *, Error **)\00", align 1

; Function Attrs: nounwind sspstrong uwtable
define internal ptr @lookup_distinct(ptr noundef %ov, ptr noundef %name, ptr noundef %errp) #0 {
entry:
  %ov.addr = alloca ptr, align 8
  %name.addr = alloca ptr, align 8
  %errp.addr = alloca ptr, align 8
  %list = alloca ptr, align 8
  store ptr %ov, ptr %ov.addr, align 8
  store ptr %name, ptr %name.addr, align 8
  store ptr %errp, ptr %errp.addr, align 8
  %0 = load ptr, ptr %ov.addr, align 8
  %unprocessed_opts = getelementptr inbounds %struct.OptsVisitor, ptr %0, i32 0, i32 3
  %1 = load ptr, ptr %unprocessed_opts, align 8
  %2 = load ptr, ptr %name.addr, align 8
  %call = call ptr @g_hash_table_lookup(ptr noundef %1, ptr noundef %2)
  store ptr %call, ptr %list, align 8
  %3 = load ptr, ptr %list, align 8
  %tobool = icmp ne ptr %3, null
  br i1 %tobool, label %if.end, label %if.then

if.then:                                          ; preds = %entry
  %4 = load ptr, ptr %errp.addr, align 8
  %5 = load ptr, ptr %name.addr, align 8
  call void (ptr, ptr, i32, ptr, ptr, ...) @error_setg_internal(ptr noundef %4, ptr noundef @.str.1, i32 noundef 221, ptr noundef @__func__.lookup_distinct, ptr noundef @.str.7, ptr noundef %5)
  br label %if.end

if.end:                                           ; preds = %if.then, %entry
  %6 = load ptr, ptr %list, align 8
  ret ptr %6
}

; Function Attrs: nounwind sspstrong uwtable
define internal ptr @lookup_scalar(ptr noundef %ov, ptr noundef %name, ptr noundef %errp) #0 {
entry:
  %retval = alloca ptr, align 8
  %ov.addr = alloca ptr, align 8
  %name.addr = alloca ptr, align 8
  %errp.addr = alloca ptr, align 8
  %list = alloca ptr, align 8
  store ptr %ov, ptr %ov.addr, align 8
  store ptr %name, ptr %name.addr, align 8
  store ptr %errp, ptr %errp.addr, align 8
  %0 = load ptr, ptr %ov.addr, align 8
  %list_mode = getelementptr inbounds %struct.OptsVisitor, ptr %0, i32 0, i32 4
  %1 = load i32, ptr %list_mode, align 8
  %cmp = icmp eq i32 %1, 0
  br i1 %cmp, label %if.then, label %if.end

if.then:                                          ; preds = %entry
  %2 = load ptr, ptr %ov.addr, align 8
  %3 = load ptr, ptr %name.addr, align 8
  %4 = load ptr, ptr %errp.addr, align 8
  %call = call ptr @lookup_distinct(ptr noundef %2, ptr noundef %3, ptr noundef %4)
  store ptr %call, ptr %list, align 8
  %5 = load ptr, ptr %list, align 8
  %tobool = icmp ne ptr %5, null
  br i1 %tobool, label %cond.true, label %cond.false

cond.true:                                        ; preds = %if.then
  %6 = load ptr, ptr %list, align 8
  %call1 = call ptr @g_queue_peek_tail(ptr noundef %6)
  br label %cond.end

cond.false:                                       ; preds = %if.then
  br label %cond.end

cond.end:                                         ; preds = %cond.false, %cond.true
  %cond = phi ptr [ %call1, %cond.true ], [ null, %cond.false ]
  store ptr %cond, ptr %retval, align 8
  br label %return

if.end:                                           ; preds = %entry
  %7 = load ptr, ptr %ov.addr, align 8
  %list_mode2 = getelementptr inbounds %struct.OptsVisitor, ptr %7, i32 0, i32 4
  %8 = load i32, ptr %list_mode2, align 8
  %cmp3 = icmp eq i32 %8, 4
  br i1 %cmp3, label %if.then4, label %if.end5

if.then4:                                         ; preds = %if.end
  %9 = load ptr, ptr %errp.addr, align 8
  call void (ptr, ptr, i32, ptr, ptr, ...) @error_setg_internal(ptr noundef %9, ptr noundef @.str.1, i32 noundef 329, ptr noundef @__func__.lookup_scalar, ptr noundef @.str.14)
  store ptr null, ptr %retval, align 8
  br label %return

if.end5:                                          ; preds = %if.end
  %10 = load ptr, ptr %ov.addr, align 8
  %list_mode6 = getelementptr inbounds %struct.OptsVisitor, ptr %10, i32 0, i32 4
  %11 = load i32, ptr %list_mode6, align 8
  %cmp7 = icmp eq i32 %11, 1
  br i1 %cmp7, label %if.then8, label %if.else

if.then8:                                         ; preds = %if.end5
  br label %if.end9

if.else:                                          ; preds = %if.end5
  call void @__assert_fail(ptr noundef @.str.15, ptr noundef @.str.1, i32 noundef 332, ptr noundef @__PRETTY_FUNCTION__.lookup_scalar) #7
  unreachable

if.end9:                                          ; preds = %if.then8
  %12 = load ptr, ptr %ov.addr, align 8
  %repeated_opts = getelementptr inbounds %struct.OptsVisitor, ptr %12, i32 0, i32 5
  %13 = load ptr, ptr %repeated_opts, align 8
  %call10 = call ptr @g_queue_peek_head(ptr noundef %13)
  store ptr %call10, ptr %retval, align 8
  br label %return

return:                                           ; preds = %if.end9, %if.then4, %cond.end
  %14 = load ptr, ptr %retval, align 8
  ret ptr %14
}