; Function Attrs: nounwind sspstrong uwtable
define internal fastcc ptr @lookup_scalar(ptr noundef readonly captures(none) %ov, ptr noundef %name, ptr noundef %errp) unnamed_addr #0 {
entry:
  %list_mode = getelementptr inbounds nuw i8, ptr %ov, i64 240
  %0 = load i32, ptr %list_mode, align 8
  switch i32 %0, label %if.else [
    i32 0, label %if.then
    i32 4, label %if.then4
    i32 1, label %if.end9
  ]

if.then:                                          ; preds = %entry
  %1 = getelementptr i8, ptr %ov, i64 232
  %ov.val = load ptr, ptr %1, align 8
  %call.i = tail call ptr @g_hash_table_lookup(ptr noundef %ov.val, ptr noundef %name) #10
  %tobool.not.i = icmp eq ptr %call.i, null
  br i1 %tobool.not.i, label %lookup_distinct.exit.thread, label %cond.true

lookup_distinct.exit.thread:                      ; preds = %if.then
  tail call void (ptr, ptr, i32, ptr, ptr, ...) @error_setg_internal(ptr noundef %errp, ptr noundef nonnull @.str.1, i32 noundef 221, ptr noundef nonnull @__func__.lookup_distinct, ptr noundef nonnull @.str.7, ptr noundef %name) #10
  br label %return

cond.true:                                        ; preds = %if.then
  %call1 = tail call ptr @g_queue_peek_tail(ptr noundef nonnull %call.i) #10
  br label %return

if.then4:                                         ; preds = %entry
  tail call void (ptr, ptr, i32, ptr, ptr, ...) @error_setg_internal(ptr noundef %errp, ptr noundef nonnull @.str.1, i32 noundef 329, ptr noundef nonnull @__func__.lookup_scalar, ptr noundef nonnull @.str.14) #10
  br label %return

if.else:                                          ; preds = %entry
  tail call void @__assert_fail(ptr noundef nonnull @.str.15, ptr noundef nonnull @.str.1, i32 noundef 332, ptr noundef nonnull @__PRETTY_FUNCTION__.lookup_scalar) #8
  unreachable

if.end9:                                          ; preds = %entry
  %repeated_opts = getelementptr inbounds nuw i8, ptr %ov, i64 248
  %2 = load ptr, ptr %repeated_opts, align 8
  %call10 = tail call ptr @g_queue_peek_head(ptr noundef %2) #10
  br label %return

return:                                           ; preds = %lookup_distinct.exit.thread, %cond.true, %if.end9, %if.then4
  %retval.0 = phi ptr [ null, %if.then4 ], [ %call10, %if.end9 ], [ %call1, %cond.true ], [ null, %lookup_distinct.exit.thread ]
  ret ptr %retval.0
}